target datalayout = "e-m:e-p270:32:32-p271:32:32-p272:64:64-i64:64-i128:128-f80:128-n8:16:32:64-S128"
target triple = "x86_64-pc-linux-gnu"

%struct.mbedtls_ecp_group = type { i32, %struct.mbedtls_mpi, %struct.mbedtls_mpi, %struct.mbedtls_mpi, %struct.mbedtls_ecp_point, %struct.mbedtls_mpi, i64, i64, i32, ptr, ptr, ptr, ptr, ptr, i64 }
%struct.mbedtls_ecp_point = type { %struct.mbedtls_mpi, %struct.mbedtls_mpi, %struct.mbedtls_mpi }
%struct.mbedtls_mpi = type { ptr, i16, i16 }

@__const.mbedtls_ecp_self_test.sw_exponents = private unnamed_addr constant [6 x ptr] [ptr @.str, ptr @.str.1, ptr @.str.2, ptr @.str.3, ptr @.str.4, ptr @.str.5], align 16
@__const.mbedtls_ecp_self_test.m_exponents = private unnamed_addr constant [6 x ptr] [ptr @.str.6, ptr @.str.7, ptr @.str.8, ptr @.str.9, ptr @.str.10, ptr @.str.11], align 16
@.str.12 = private unnamed_addr constant [53 x i8] c"  ECP SW test #1 (constant op_count, base point G): \00", align 1
@.str.13 = private unnamed_addr constant [52 x i8] c"  ECP SW test #2 (constant op_count, other point): \00", align 1
@.str.14 = private unnamed_addr constant [44 x i8] c"  ECP Montgomery test (constant op_count): \00", align 1
@.str.15 = private unnamed_addr constant [38 x i8] c"Unexpected error, return code = %08X\0A\00", align 1
@.str.16 = private unnamed_addr constant [2 x i8] c"\0A\00", align 1

; Function Attrs: nounwind uwtable
define hidden i32 @mbedtls_ecp_mul_restartable(ptr noundef %0, ptr noundef %1, ptr noundef %2, ptr noundef %3, ptr noundef %4, ptr noundef %5, ptr noundef %6) #0 {
  %8 = alloca i32, align 4
  %9 = alloca ptr, align 8
  %10 = alloca ptr, align 8
  %11 = alloca ptr, align 8
  %12 = alloca ptr, align 8
  %13 = alloca ptr, align 8
  %14 = alloca ptr, align 8
  %15 = alloca ptr, align 8
  store ptr %0, ptr %9, align 8, !tbaa !25
  store ptr %1, ptr %10, align 8, !tbaa !34
  store ptr %2, ptr %11, align 8, !tbaa !50
  store ptr %3, ptr %12, align 8, !tbaa !34
  store ptr %4, ptr %13, align 8, !tbaa !55
  store ptr %5, ptr %14, align 8, !tbaa !55
  store ptr %6, ptr %15, align 8, !tbaa !55
  %16 = load ptr, ptr %13, align 8, !tbaa !55
  %17 = icmp eq ptr %16, null
  br i1 %17, label %18, label %19

18:                                               ; preds = %7
  store i32 -20352, ptr %8, align 4
  br label %28

19:                                               ; preds = %7
  %20 = load ptr, ptr %9, align 8, !tbaa !25
  %21 = load ptr, ptr %10, align 8, !tbaa !34
  %22 = load ptr, ptr %11, align 8, !tbaa !50
  %23 = load ptr, ptr %12, align 8, !tbaa !34
  %24 = load ptr, ptr %13, align 8, !tbaa !55
  %25 = load ptr, ptr %14, align 8, !tbaa !55
  %26 = load ptr, ptr %15, align 8, !tbaa !55
  %27 = call i32 @ecp_mul_restartable_internal(ptr noundef %20, ptr noundef %21, ptr noundef %22, ptr noundef %23, ptr noundef %24, ptr noundef %25, ptr noundef %26)
  store i32 %27, ptr %8, align 4
  br label %28

28:                                               ; preds = %19, %18
  %29 = load i32, ptr %8, align 4
  ret i32 %29
}

; Function Attrs: nounwind uwtable
define hidden i32 @mbedtls_ecp_mul(ptr noundef %0, ptr noundef %1, ptr noundef %2, ptr noundef %3, ptr noundef %4, ptr noundef %5) #0 {
  %7 = alloca ptr, align 8
  %8 = alloca ptr, align 8
  %9 = alloca ptr, align 8
  %10 = alloca ptr, align 8
  %11 = alloca ptr, align 8
  %12 = alloca ptr, align 8
  store ptr %0, ptr %7, align 8, !tbaa !25
  store ptr %1, ptr %8, align 8, !tbaa !34
  store ptr %2, ptr %9, align 8, !tbaa !50
  store ptr %3, ptr %10, align 8, !tbaa !34
  store ptr %4, ptr %11, align 8, !tbaa !55
  store ptr %5, ptr %12, align 8, !tbaa !55
  %13 = load ptr, ptr %7, align 8, !tbaa !25
  %14 = load ptr, ptr %8, align 8, !tbaa !34
  %15 = load ptr, ptr %9, align 8, !tbaa !50
  %16 = load ptr, ptr %10, align 8, !tbaa !34
  %17 = load ptr, ptr %11, align 8, !tbaa !55
  %18 = load ptr, ptr %12, align 8, !tbaa !55
  %19 = call i32 @mbedtls_ecp_mul_restartable(ptr noundef %13, ptr noundef %14, ptr noundef %15, ptr noundef %16, ptr noundef %17, ptr noundef %18, ptr noundef null)
  ret i32 %19
}

; Function Attrs: nounwind uwtable
define hidden void @mbedtls_ecp_point_init(ptr noundef %0) #0 {
  %2 = alloca ptr, align 8
  store ptr %0, ptr %2, align 8, !tbaa !34
  %3 = load ptr, ptr %2, align 8, !tbaa !34
  %4 = getelementptr inbounds nuw %struct.mbedtls_ecp_point, ptr %3, i32 0, i32 0
  call void @mbedtls_mpi_init(ptr noundef %4)
  %5 = load ptr, ptr %2, align 8, !tbaa !34
  %6 = getelementptr inbounds nuw %struct.mbedtls_ecp_point, ptr %5, i32 0, i32 1
  call void @mbedtls_mpi_init(ptr noundef %6)
  %7 = load ptr, ptr %2, align 8, !tbaa !34
  %8 = getelementptr inbounds nuw %struct.mbedtls_ecp_point, ptr %7, i32 0, i32 2
  call void @mbedtls_mpi_init(ptr noundef %8)
  ret void
}

; Function Attrs: nounwind uwtable
define hidden void @mbedtls_ecp_group_init(ptr noundef %0) #0 {
  %2 = alloca ptr, align 8
  store ptr %0, ptr %2, align 8, !tbaa !25
  %3 = load ptr, ptr %2, align 8, !tbaa !25
  %4 = getelementptr inbounds nuw %struct.mbedtls_ecp_group, ptr %3, i32 0, i32 0
  store i32 0, ptr %4, align 8, !tbaa !35
  %5 = load ptr, ptr %2, align 8, !tbaa !25
  %6 = getelementptr inbounds nuw %struct.mbedtls_ecp_group, ptr %5, i32 0, i32 1
  call void @mbedtls_mpi_init(ptr noundef %6)
  %7 = load ptr, ptr %2, align 8, !tbaa !25
  %8 = getelementptr inbounds nuw %struct.mbedtls_ecp_group, ptr %7, i32 0, i32 2
  call void @mbedtls_mpi_init(ptr noundef %8)
  %9 = load ptr, ptr %2, align 8, !tbaa !25
  %10 = getelementptr inbounds nuw %struct.mbedtls_ecp_group, ptr %9, i32 0, i32 3
  call void @mbedtls_mpi_init(ptr noundef %10)
  %11 = load ptr, ptr %2, align 8, !tbaa !25
  %12 = getelementptr inbounds nuw %struct.mbedtls_ecp_group, ptr %11, i32 0, i32 4
  call void @mbedtls_ecp_point_init(ptr noundef %12)
  %13 = load ptr, ptr %2, align 8, !tbaa !25
  %14 = getelementptr inbounds nuw %struct.mbedtls_ecp_group, ptr %13, i32 0, i32 5
  call void @mbedtls_mpi_init(ptr noundef %14)
  %15 = load ptr, ptr %2, align 8, !tbaa !25
  %16 = getelementptr inbounds nuw %struct.mbedtls_ecp_group, ptr %15, i32 0, i32 6
  store i64 0, ptr %16, align 8, !tbaa !36
  %17 = load ptr, ptr %2, align 8, !tbaa !25
  %18 = getelementptr inbounds nuw %struct.mbedtls_ecp_group, ptr %17, i32 0, i32 7
  store i64 0, ptr %18, align 8, !tbaa !37
  %19 = load ptr, ptr %2, align 8, !tbaa !25
  %20 = getelementptr inbounds nuw %struct.mbedtls_ecp_group, ptr %19, i32 0, i32 8
  store i32 0, ptr %20, align 8, !tbaa !38
  %21 = load ptr, ptr %2, align 8, !tbaa !25
  %22 = getelementptr inbounds nuw %struct.mbedtls_ecp_group, ptr %21, i32 0, i32 9
  store ptr null, ptr %22, align 8, !tbaa !39
  %23 = load ptr, ptr %2, align 8, !tbaa !25
  %24 = getelementptr inbounds nuw %struct.mbedtls_ecp_group, ptr %23, i32 0, i32 10
  store ptr null, ptr %24, align 8, !tbaa !40
  %25 = load ptr, ptr %2, align 8, !tbaa !25
  %26 = getelementptr inbounds nuw %struct.mbedtls_ecp_group, ptr %25, i32 0, i32 11
  store ptr null, ptr %26, align 8, !tbaa !41
  %27 = load ptr, ptr %2, align 8, !tbaa !25
  %28 = getelementptr inbounds nuw %struct.mbedtls_ecp_group, ptr %27, i32 0, i32 12
  store ptr null, ptr %28, align 8, !tbaa !42
  %29 = load ptr, ptr %2, align 8, !tbaa !25
  %30 = getelementptr inbounds nuw %struct.mbedtls_ecp_group, ptr %29, i32 0, i32 13
  store ptr null, ptr %30, align 8, !tbaa !43
  %31 = load ptr, ptr %2, align 8, !tbaa !25
  %32 = getelementptr inbounds nuw %struct.mbedtls_ecp_group, ptr %31, i32 0, i32 14
  store i64 0, ptr %32, align 8, !tbaa !44
  ret void
}

; Function Attrs: nounwind uwtable
define hidden i32 @mbedtls_ecp_self_test(i32 noundef %0) #0 {
  %2 = alloca i32, align 4
  %3 = alloca i32, align 4
  %4 = alloca %struct.mbedtls_ecp_group, align 8
  %5 = alloca %struct.mbedtls_ecp_point, align 8
  %6 = alloca %struct.mbedtls_ecp_point, align 8
  %7 = alloca %struct.mbedtls_mpi, align 8
  %8 = alloca [6 x ptr], align 16
  %9 = alloca [6 x ptr], align 16
  store i32 %0, ptr %2, align 4, !tbaa !3
  call void @llvm.lifetime.start.p0(i64 4, ptr %3) #11
  store i32 -110, ptr %3, align 4, !tbaa !3
  call void @llvm.lifetime.start.p0(i64 192, ptr %4) #11
  call void @llvm.lifetime.start.p0(i64 48, ptr %5) #11
  call void @llvm.lifetime.start.p0(i64 48, ptr %6) #11
  call void @llvm.lifetime.start.p0(i64 16, ptr %7) #11
  call void @llvm.lifetime.start.p0(i64 48, ptr %8) #11
  call void @llvm.memcpy.p0.p0.i64(ptr align 16 %8, ptr align 16 @__const.mbedtls_ecp_self_test.sw_exponents, i64 48, i1 false)
  call void @llvm.lifetime.start.p0(i64 48, ptr %9) #11
  call void @llvm.memcpy.p0.p0.i64(ptr align 16 %9, ptr align 16 @__const.mbedtls_ecp_self_test.m_exponents, i64 48, i1 false)
  call void @mbedtls_ecp_group_init(ptr noundef %4)
  call void @mbedtls_ecp_point_init(ptr noundef %5)
  call void @mbedtls_ecp_point_init(ptr noundef %6)
  call void @mbedtls_mpi_init(ptr noundef %7)
  br label %10

10:                                               ; preds = %1
  %11 = call i32 @mbedtls_ecp_group_load(ptr noundef %4, i32 noundef 1)
  store i32 %11, ptr %3, align 4, !tbaa !3
  %12 = icmp ne i32 %11, 0
  br i1 %12, label %13, label %14

13:                                               ; preds = %10
  br label %77

14:                                               ; preds = %10
  br label %15

15:                                               ; preds = %14
  br label %16

16:                                               ; preds = %15
  %17 = load i32, ptr %2, align 4, !tbaa !3
  %18 = icmp ne i32 %17, 0
  br i1 %18, label %19, label %21

19:                                               ; preds = %16
  %20 = call i32 (ptr, ...) @printf(ptr noundef @.str.12)
  br label %21

21:                                               ; preds = %19, %16
  br label %22

22:                                               ; preds = %21
  %23 = call i32 @mbedtls_mpi_lset(ptr noundef %7, i64 noundef 2)
  store i32 %23, ptr %3, align 4, !tbaa !3
  %24 = icmp ne i32 %23, 0
  br i1 %24, label %25, label %26

25:                                               ; preds = %22
  br label %77

26:                                               ; preds = %22
  br label %27

27:                                               ; preds = %26
  br label %28

28:                                               ; preds = %27
  br label %29

29:                                               ; preds = %28
  %30 = getelementptr inbounds nuw %struct.mbedtls_ecp_group, ptr %4, i32 0, i32 4
  %31 = call i32 @mbedtls_ecp_mul(ptr noundef %4, ptr noundef %6, ptr noundef %7, ptr noundef %30, ptr noundef @self_test_rng, ptr noundef null)
  store i32 %31, ptr %3, align 4, !tbaa !3
  %32 = icmp ne i32 %31, 0
  br i1 %32, label %33, label %34

33:                                               ; preds = %29
  br label %77

34:                                               ; preds = %29
  br label %35

35:                                               ; preds = %34
  br label %36

36:                                               ; preds = %35
  %37 = load i32, ptr %2, align 4, !tbaa !3
  %38 = getelementptr inbounds nuw %struct.mbedtls_ecp_group, ptr %4, i32 0, i32 4
  %39 = getelementptr inbounds [6 x ptr], ptr %8, i64 0, i64 0
  %40 = call i32 @self_test_point(i32 noundef %37, ptr noundef %4, ptr noundef %5, ptr noundef %7, ptr noundef %38, ptr noundef %39, i64 noundef 6)
  store i32 %40, ptr %3, align 4, !tbaa !3
  %41 = load i32, ptr %3, align 4, !tbaa !3
  %42 = icmp ne i32 %41, 0
  br i1 %42, label %43, label %44

43:                                               ; preds = %36
  br label %77

44:                                               ; preds = %36
  %45 = load i32, ptr %2, align 4, !tbaa !3
  %46 = icmp ne i32 %45, 0
  br i1 %46, label %47, label %49

47:                                               ; preds = %44
  %48 = call i32 (ptr, ...) @printf(ptr noundef @.str.13)
  br label %49

49:                                               ; preds = %47, %44
  %50 = load i32, ptr %2, align 4, !tbaa !3
  %51 = getelementptr inbounds [6 x ptr], ptr %8, i64 0, i64 0
  %52 = call i32 @self_test_point(i32 noundef %50, ptr noundef %4, ptr noundef %5, ptr noundef %7, ptr noundef %6, ptr noundef %51, i64 noundef 6)
  store i32 %52, ptr %3, align 4, !tbaa !3
  %53 = load i32, ptr %3, align 4, !tbaa !3
  %54 = icmp ne i32 %53, 0
  br i1 %54, label %55, label %56

55:                                               ; preds = %49
  br label %77

56:                                               ; preds = %49
  call void @mbedtls_ecp_group_free(ptr noundef %4)
  call void @mbedtls_ecp_point_free(ptr noundef %5)
  %57 = load i32, ptr %2, align 4, !tbaa !3
  %58 = icmp ne i32 %57, 0
  br i1 %58, label %59, label %61

59:                                               ; preds = %56
  %60 = call i32 (ptr, ...) @printf(ptr noundef @.str.14)
  br label %61

61:                                               ; preds = %59, %56
  br label %62

62:                                               ; preds = %61
  %63 = call i32 @mbedtls_ecp_group_load(ptr noundef %4, i32 noundef 9)
  store i32 %63, ptr %3, align 4, !tbaa !3
  %64 = icmp ne i32 %63, 0
  br i1 %64, label %65, label %66

65:                                               ; preds = %62
  br label %77

66:                                               ; preds = %62
  br label %67

67:                                               ; preds = %66
  br label %68

68:                                               ; preds = %67
  %69 = load i32, ptr %2, align 4, !tbaa !3
  %70 = getelementptr inbounds nuw %struct.mbedtls_ecp_group, ptr %4, i32 0, i32 4
  %71 = getelementptr inbounds [6 x ptr], ptr %9, i64 0, i64 0
  %72 = call i32 @self_test_point(i32 noundef %69, ptr noundef %4, ptr noundef %5, ptr noundef %7, ptr noundef %70, ptr noundef %71, i64 noundef 6)
  store i32 %72, ptr %3, align 4, !tbaa !3
  %73 = load i32, ptr %3, align 4, !tbaa !3
  %74 = icmp ne i32 %73, 0
  br i1 %74, label %75, label %76

75:                                               ; preds = %68
  br label %77

76:                                               ; preds = %68
  br label %77

77:                                               ; preds = %76, %75, %65, %55, %43, %33, %25, %13
  %78 = load i32, ptr %3, align 4, !tbaa !3
  %79 = icmp slt i32 %78, 0
  br i1 %79, label %80, label %86

80:                                               ; preds = %77
  %81 = load i32, ptr %2, align 4, !tbaa !3
  %82 = icmp ne i32 %81, 0
  br i1 %82, label %83, label %86

83:                                               ; preds = %80
  %84 = load i32, ptr %3, align 4, !tbaa !3
  %85 = call i32 (ptr, ...) @printf(ptr noundef @.str.15, i32 noundef %84)
  br label %86

86:                                               ; preds = %83, %80, %77
  call void @mbedtls_ecp_group_free(ptr noundef %4)
  call void @mbedtls_ecp_point_free(ptr noundef %5)
  call void @mbedtls_ecp_point_free(ptr noundef %6)
  call void @mbedtls_mpi_free(ptr noundef %7)
  %87 = load i32, ptr %2, align 4, !tbaa !3
  %88 = icmp ne i32 %87, 0
  br i1 %88, label %89, label %91

89:                                               ; preds = %86
  %90 = call i32 (ptr, ...) @printf(ptr noundef @.str.16)
  br label %91

91:                                               ; preds = %89, %86
  %92 = load i32, ptr %3, align 4, !tbaa !3
  call void @llvm.lifetime.end.p0(i64 48, ptr %9) #11
  call void @llvm.lifetime.end.p0(i64 48, ptr %8) #11
  call void @llvm.lifetime.end.p0(i64 16, ptr %7) #11
  call void @llvm.lifetime.end.p0(i64 48, ptr %6) #11
  call void @llvm.lifetime.end.p0(i64 48, ptr %5) #11
  call void @llvm.lifetime.end.p0(i64 192, ptr %4) #11
  call void @llvm.lifetime.end.p0(i64 4, ptr %3) #11
  ret i32 %92
}