; Function Attrs: nounwind uwtable
define hidden i32 @mbedtls_ecp_self_test(i32 noundef %0) local_unnamed_addr #7 {
  %2 = alloca %struct.mbedtls_ecp_group, align 8
  %3 = alloca %struct.mbedtls_ecp_point, align 8
  %4 = alloca %struct.mbedtls_ecp_point, align 8
  %5 = alloca %struct.mbedtls_mpi, align 8
  call void @llvm.lifetime.start.p0(i64 192, ptr nonnull %2) #21
  call void @llvm.lifetime.start.p0(i64 48, ptr nonnull %3) #21
  call void @llvm.lifetime.start.p0(i64 48, ptr nonnull %4) #21
  call void @llvm.lifetime.start.p0(i64 16, ptr nonnull %5) #21
  store i32 0, ptr %2, align 8, !tbaa !27
  %6 = getelementptr inbounds nuw i8, ptr %2, i64 8
  call void @mbedtls_mpi_init(ptr noundef nonnull %6) #21
  %7 = getelementptr inbounds nuw i8, ptr %2, i64 24
  call void @mbedtls_mpi_init(ptr noundef nonnull %7) #21
  %8 = getelementptr inbounds nuw i8, ptr %2, i64 40
  call void @mbedtls_mpi_init(ptr noundef nonnull %8) #21
  %9 = getelementptr inbounds nuw i8, ptr %2, i64 56
  call void @mbedtls_mpi_init(ptr noundef nonnull %9) #21
  %10 = getelementptr inbounds nuw i8, ptr %2, i64 72
  call void @mbedtls_mpi_init(ptr noundef nonnull %10) #21
  %11 = getelementptr inbounds nuw i8, ptr %2, i64 88
  call void @mbedtls_mpi_init(ptr noundef nonnull %11) #21
  %12 = getelementptr inbounds nuw i8, ptr %2, i64 104
  call void @mbedtls_mpi_init(ptr noundef nonnull %12) #21
  %13 = getelementptr inbounds nuw i8, ptr %2, i64 120
  %14 = getelementptr inbounds nuw i8, ptr %2, i64 144
  call void @llvm.memset.p0.i64(ptr noundef nonnull align 8 dereferenceable(20) %13, i8 0, i64 20, i1 false)
  call void @llvm.memset.p0.i64(ptr noundef nonnull align 8 dereferenceable(48) %14, i8 0, i64 48, i1 false)
  call void @mbedtls_mpi_init(ptr noundef nonnull %3) #21
  %15 = getelementptr inbounds nuw i8, ptr %3, i64 16
  call void @mbedtls_mpi_init(ptr noundef nonnull %15) #21
  %16 = getelementptr inbounds nuw i8, ptr %3, i64 32
  call void @mbedtls_mpi_init(ptr noundef nonnull %16) #21
  call void @mbedtls_mpi_init(ptr noundef nonnull %4) #21
  %17 = getelementptr inbounds nuw i8, ptr %4, i64 16
  call void @mbedtls_mpi_init(ptr noundef nonnull %17) #21
  %18 = getelementptr inbounds nuw i8, ptr %4, i64 32
  call void @mbedtls_mpi_init(ptr noundef nonnull %18) #21
  call void @mbedtls_mpi_init(ptr noundef nonnull %5) #21
  %19 = call i32 @mbedtls_ecp_group_load(ptr noundef nonnull %2, i32 noundef 1) #21
  %.not = icmp eq i32 %19, 0
  br i1 %.not, label %20, label %39

20:                                               ; preds = %1
  %.not22 = icmp eq i32 %0, 0
  br i1 %.not22, label %23, label %21

21:                                               ; preds = %20
  %22 = call i32 (ptr, ...) @printf(ptr noundef nonnull dereferenceable(1) @.str.12)
  br label %23

23:                                               ; preds = %20, %21
  %24 = call i32 @mbedtls_mpi_lset(ptr noundef nonnull %5, i64 noundef 2) #21
  %.not23 = icmp eq i32 %24, 0
  br i1 %.not23, label %25, label %39

25:                                               ; preds = %23
  %26 = call fastcc i32 @ecp_mul_restartable_internal(ptr noundef nonnull %2, ptr noundef nonnull %4, ptr noundef nonnull %5, ptr noundef nonnull %9, ptr noundef nonnull @self_test_rng, ptr noundef null)
  %.not24 = icmp eq i32 %26, 0
  br i1 %.not24, label %27, label %39

27:                                               ; preds = %25
  %28 = call fastcc i32 @self_test_point(i32 noundef %0, ptr noundef %2, ptr noundef %3, ptr noundef %5, ptr noundef %9, ptr noundef @__const.mbedtls_ecp_self_test.sw_exponents)
  %.not25 = icmp eq i32 %28, 0
  br i1 %.not25, label %29, label %39

29:                                               ; preds = %27
  br i1 %.not22, label %.split, label %.split15

.split15:                                         ; preds = %29
  %30 = call i32 (ptr, ...) @printf(ptr noundef nonnull dereferenceable(1) @.str.13)
  br label %.split

.split:                                           ; preds = %29, %.split15
  %.sink = phi i32 [ %0, %.split15 ], [ 0, %29 ]
  %31 = call fastcc i32 @self_test_point(i32 noundef %.sink, ptr noundef %2, ptr noundef %3, ptr noundef %5, ptr noundef %4, ptr noundef @__const.mbedtls_ecp_self_test.sw_exponents)
  %.not26 = icmp eq i32 %31, 0
  br i1 %.not26, label %32, label %39

32:                                               ; preds = %.split
  call void @mbedtls_ecp_group_free(ptr noundef nonnull %2)
  call void @mbedtls_ecp_point_free(ptr noundef nonnull %3)
  br i1 %.not22, label %35, label %33

33:                                               ; preds = %32
  %34 = call i32 (ptr, ...) @printf(ptr noundef nonnull dereferenceable(1) @.str.14)
  br label %35

35:                                               ; preds = %32, %33
  %36 = call i32 @mbedtls_ecp_group_load(ptr noundef nonnull %2, i32 noundef 9) #21
  %.not27 = icmp eq i32 %36, 0
  br i1 %.not27, label %37, label %39

37:                                               ; preds = %35
  %38 = call fastcc i32 @self_test_point(i32 noundef %0, ptr noundef %2, ptr noundef %3, ptr noundef %5, ptr noundef %9, ptr noundef @__const.mbedtls_ecp_self_test.m_exponents)
  br label %39

39:                                               ; preds = %37, %35, %.split, %27, %25, %23, %1
  %.0 = phi i32 [ %19, %1 ], [ %24, %23 ], [ %26, %25 ], [ %28, %27 ], [ %31, %.split ], [ %36, %35 ], [ %38, %37 ]
  %40 = icmp slt i32 %.0, 0
  %41 = icmp ne i32 %0, 0
  %or.cond = and i1 %41, %40
  br i1 %or.cond, label %42, label %44

42:                                               ; preds = %39
  %43 = call i32 (ptr, ...) @printf(ptr noundef nonnull dereferenceable(1) @.str.15, i32 noundef %.0)
  br label %44

44:                                               ; preds = %42, %39
  call void @mbedtls_ecp_group_free(ptr noundef nonnull %2)
  call void @mbedtls_mpi_free(ptr noundef nonnull %3) #21
  call void @mbedtls_mpi_free(ptr noundef nonnull %15) #21
  call void @mbedtls_mpi_free(ptr noundef nonnull %16) #21
  call void @mbedtls_mpi_free(ptr noundef nonnull %4) #21
  call void @mbedtls_mpi_free(ptr noundef nonnull %17) #21
  call void @mbedtls_mpi_free(ptr noundef nonnull %18) #21
  call void @mbedtls_mpi_free(ptr noundef nonnull %5) #21
  br i1 %41, label %45, label %46

45:                                               ; preds = %44
  %putchar = call i32 @putchar(i32 10)
  br label %46

46:                                               ; preds = %45, %44
  call void @llvm.lifetime.end.p0(i64 16, ptr nonnull %5) #21
  call void @llvm.lifetime.end.p0(i64 48, ptr nonnull %4) #21
  call void @llvm.lifetime.end.p0(i64 48, ptr nonnull %3) #21
  call void @llvm.lifetime.end.p0(i64 192, ptr nonnull %2) #21
  ret i32 %.0
}